; Function Attrs: nounwind uwtable
define internal range(i32 -22, 1) i32 @test2_config_props(ptr noundef captures(none) %0) #1 {
  %2 = load ptr, ptr %0, align 8, !tbaa !38
  %3 = getelementptr inbounds nuw i8, ptr %2, i64 72
  %4 = load ptr, ptr %3, align 8, !tbaa !4
  %5 = getelementptr inbounds nuw i8, ptr %4, i64 112
  %6 = getelementptr inbounds nuw i8, ptr %0, i64 36
  %7 = load i32, ptr %6, align 4, !tbaa !61
  %8 = getelementptr inbounds nuw i8, ptr %0, i64 56
  %9 = load i32, ptr %8, align 8, !tbaa !62
  %10 = getelementptr inbounds nuw i8, ptr %0, i64 60
  %11 = load i32, ptr %10, align 4, !tbaa !63
  %12 = tail call i32 @ff_draw_init2(ptr noundef nonnull %5, i32 noundef %7, i32 noundef %9, i32 noundef %11, i32 noundef 0) #20
  %13 = icmp sgt i32 %12, -1
  br i1 %13, label %15, label %14

14:                                               ; preds = %1
  tail call void (ptr, i32, ptr, ...) @av_log(ptr noundef null, i32 noundef 0, ptr noundef nonnull @.str.56, ptr noundef nonnull @.str.67, ptr noundef nonnull @.str.58, i32 noundef 944) #20
  tail call void @abort() #23
  unreachable

15:                                               ; preds = %1
  %16 = getelementptr inbounds nuw i8, ptr %4, i64 8
  %17 = load i32, ptr %16, align 8, !tbaa !36
  %18 = tail call i32 @ff_draw_round_to_sub(ptr noundef nonnull %5, i32 noundef 0, i32 noundef -1, i32 noundef %17) #20
  store i32 %18, ptr %16, align 8, !tbaa !36
  %19 = getelementptr inbounds nuw i8, ptr %4, i64 12
  %20 = load i32, ptr %19, align 4, !tbaa !37
  %21 = tail call i32 @ff_draw_round_to_sub(ptr noundef nonnull %5, i32 noundef 1, i32 noundef -1, i32 noundef %20) #20
  store i32 %21, ptr %19, align 4, !tbaa !37
  %22 = load i32, ptr %16, align 8, !tbaa !36
  %23 = tail call i32 @av_image_check_size(i32 noundef %22, i32 noundef %21, i32 noundef 0, ptr noundef nonnull %2) #20
  %24 = icmp slt i32 %23, 0
  br i1 %24, label %44, label %25

25:                                               ; preds = %15
  %26 = load ptr, ptr %0, align 8, !tbaa !38
  %27 = getelementptr inbounds nuw i8, ptr %26, i64 72
  %28 = load ptr, ptr %27, align 8, !tbaa !4
  %29 = getelementptr inbounds nuw i8, ptr %28, i64 8
  %30 = load i32, ptr %29, align 8, !tbaa !36
  %31 = getelementptr inbounds nuw i8, ptr %0, i64 40
  store i32 %30, ptr %31, align 8, !tbaa !64
  %32 = getelementptr inbounds nuw i8, ptr %28, i64 12
  %33 = load i32, ptr %32, align 4, !tbaa !37
  %34 = getelementptr inbounds nuw i8, ptr %0, i64 44
  store i32 %33, ptr %34, align 4, !tbaa !65
  %35 = getelementptr inbounds nuw i8, ptr %0, i64 48
  %36 = getelementptr inbounds nuw i8, ptr %28, i64 64
  %37 = load i64, ptr %36, align 8
  store i64 %37, ptr %35, align 8
  %38 = getelementptr inbounds nuw i8, ptr %0, i64 264
  %39 = getelementptr inbounds nuw i8, ptr %28, i64 36
  %40 = load i64, ptr %39, align 4
  store i64 %40, ptr %38, align 8
  %41 = getelementptr inbounds nuw i8, ptr %0, i64 96
  %42 = getelementptr inbounds nuw i8, ptr %28, i64 28
  %43 = load i64, ptr %42, align 4
  store i64 %43, ptr %41, align 8
  br label %44

44:                                               ; preds = %15, %25
  %.0 = phi i32 [ 0, %25 ], [ -22, %15 ]
  ret i32 %.0
}